; Function Attrs: mustprogress nounwind uwtable
define hidden void @_ZN26ZRootsIteratorAllUncolored5applyEP13ThreadClosureP14NMethodClosure(ptr noundef nonnull align 8 dereferenceable(76) %0, ptr noundef %1, ptr noundef %2) local_unnamed_addr #0 align 2 {
  %4 = alloca %class.TimeInstant, align 8
  %5 = alloca %class.ZRootStatTimer, align 8
  %6 = getelementptr inbounds i8, ptr %0, i64 64
  %7 = load volatile i8, ptr %6, align 8
  %8 = trunc i8 %7 to i1
  br i1 %8, label %_ZN14ZParallelApplyI20ZJavaThreadsIteratorE5applyI13ThreadClosureEEvPT_.exit, label %9

9:                                                ; preds = %3
  tail call void @_ZN20ZJavaThreadsIterator5applyEP13ThreadClosure(ptr noundef nonnull align 8 dereferenceable(61) %0, ptr noundef %1)
  %10 = load volatile i8, ptr %6, align 8
  %11 = trunc i8 %10 to i1
  br i1 %11, label %_ZN14ZParallelApplyI20ZJavaThreadsIteratorE5applyI13ThreadClosureEEvPT_.exit, label %12

12:                                               ; preds = %9
  store volatile i8 1, ptr %6, align 8
  br label %_ZN14ZParallelApplyI20ZJavaThreadsIteratorE5applyI13ThreadClosureEEvPT_.exit

_ZN14ZParallelApplyI20ZJavaThreadsIteratorE5applyI13ThreadClosureEEvPT_.exit: ; preds = %3, %9, %12
  %13 = getelementptr inbounds i8, ptr %0, i64 75
  %14 = load volatile i8, ptr %13, align 1
  %15 = trunc i8 %14 to i1
  br i1 %15, label %_ZN14ZParallelApplyI20ZNMethodsIteratorAllE5applyI14NMethodClosureEEvPT_.exit, label %16

16:                                               ; preds = %_ZN14ZParallelApplyI20ZJavaThreadsIteratorE5applyI13ThreadClosureEEvPT_.exit
  call void @llvm.lifetime.start.p0(i64 24, ptr nonnull %5)
  %17 = getelementptr inbounds i8, ptr %0, i64 74
  %18 = load i8, ptr %17, align 2
  %switch.selectcmp.i.i = icmp eq i8 %18, 1
  %switch.select.i.i = select i1 %switch.selectcmp.i.i, ptr getelementptr inbounds (i8, ptr @_ZL33ZSubPhaseConcurrentRootsCodeCache, i64 48), ptr null
  %switch.selectcmp2.i.i = icmp eq i8 %18, 0
  %switch.select3.i.i = select i1 %switch.selectcmp2.i.i, ptr @_ZL33ZSubPhaseConcurrentRootsCodeCache, ptr %switch.select.i.i
  store ptr %switch.select3.i.i, ptr %5, align 8
  %19 = getelementptr inbounds i8, ptr %5, i64 8
  %20 = tail call { i64, i64 } @_ZN29CompositeElapsedCounterSource3nowEv() #7
  %21 = extractvalue { i64, i64 } %20, 0
  store i64 %21, ptr %19, align 8
  %22 = getelementptr inbounds i8, ptr %5, i64 16
  %23 = extractvalue { i64, i64 } %20, 1
  store i64 %23, ptr %22, align 8
  %.not.i.i.i.i = icmp eq ptr %switch.select3.i.i, null
  br i1 %.not.i.i.i.i, label %_ZN14ZRootStatTimerC2ERK17ZRootStatSubPhase21ZGenerationIdOptional.exit.i.i, label %24

24:                                               ; preds = %16
  %25 = load ptr, ptr %switch.select3.i.i, align 8
  %26 = load ptr, ptr %25, align 8
  call void %26(ptr noundef nonnull align 8 dereferenceable(48) %switch.select3.i.i, ptr noundef null, ptr noundef nonnull align 8 dereferenceable(16) %19) #7
  br label %_ZN14ZRootStatTimerC2ERK17ZRootStatSubPhase21ZGenerationIdOptional.exit.i.i

_ZN14ZRootStatTimerC2ERK17ZRootStatSubPhase21ZGenerationIdOptional.exit.i.i: ; preds = %24, %16
  %27 = getelementptr inbounds i8, ptr %0, i64 73
  %28 = load i8, ptr %27, align 1
  %29 = trunc i8 %28 to i1
  call void @_ZN8ZNMethod11nmethods_doEbP14NMethodClosure(i1 noundef zeroext %29, ptr noundef %2) #7
  call void @llvm.lifetime.start.p0(i64 16, ptr nonnull %4)
  %30 = load ptr, ptr %5, align 8
  %.not.i.i.i = icmp eq ptr %30, null
  br i1 %.not.i.i.i, label %_ZN21ZNMethodsIteratorImpl5applyEP14NMethodClosure.exit.i, label %31

31:                                               ; preds = %_ZN14ZRootStatTimerC2ERK17ZRootStatSubPhase21ZGenerationIdOptional.exit.i.i
  %32 = call { i64, i64 } @_ZN29CompositeElapsedCounterSource3nowEv() #7
  %33 = extractvalue { i64, i64 } %32, 0
  store i64 %33, ptr %4, align 8
  %34 = getelementptr inbounds i8, ptr %4, i64 8
  %35 = extractvalue { i64, i64 } %32, 1
  store i64 %35, ptr %34, align 8
  %36 = load ptr, ptr %5, align 8
  %37 = load ptr, ptr %36, align 8
  %38 = getelementptr inbounds i8, ptr %37, i64 8
  %39 = load ptr, ptr %38, align 8
  call void %39(ptr noundef nonnull align 8 dereferenceable(48) %36, ptr noundef null, ptr noundef nonnull align 8 dereferenceable(16) %19, ptr noundef nonnull align 8 dereferenceable(16) %4) #7
  br label %_ZN21ZNMethodsIteratorImpl5applyEP14NMethodClosure.exit.i

_ZN21ZNMethodsIteratorImpl5applyEP14NMethodClosure.exit.i: ; preds = %31, %_ZN14ZRootStatTimerC2ERK17ZRootStatSubPhase21ZGenerationIdOptional.exit.i.i
  call void @llvm.lifetime.end.p0(i64 16, ptr nonnull %4)
  call void @llvm.lifetime.end.p0(i64 24, ptr nonnull %5)
  %40 = load volatile i8, ptr %13, align 1
  %41 = trunc i8 %40 to i1
  br i1 %41, label %_ZN14ZParallelApplyI20ZNMethodsIteratorAllE5applyI14NMethodClosureEEvPT_.exit, label %42

42:                                               ; preds = %_ZN21ZNMethodsIteratorImpl5applyEP14NMethodClosure.exit.i
  store volatile i8 1, ptr %13, align 1
  br label %_ZN14ZParallelApplyI20ZNMethodsIteratorAllE5applyI14NMethodClosureEEvPT_.exit

_ZN14ZParallelApplyI20ZNMethodsIteratorAllE5applyI14NMethodClosureEEvPT_.exit: ; preds = %_ZN14ZParallelApplyI20ZJavaThreadsIteratorE5applyI13ThreadClosureEEvPT_.exit, %_ZN21ZNMethodsIteratorImpl5applyEP14NMethodClosure.exit.i, %42
  ret void
}